target datalayout = "e-m:e-p270:32:32-p271:32:32-p272:64:64-i64:64-i128:128-f80:128-n8:16:32:64-S128"
target triple = "x86_64-pc-linux-gnu"

%class.DumpTimeLambdaProxyClassInfo = type { ptr }
%class.LambdaProxyClassKey = type { ptr, ptr, ptr, ptr, ptr, ptr }
%class.RunTimeLambdaProxyClassInfo = type { %class.LambdaProxyClassKey, ptr }
%class.GrowableArrayView = type { %class.GrowableArrayBase, ptr }
%class.GrowableArrayBase = type { i32, i32 }

@_ZN14ArchiveBuilder8_currentE = external global ptr, align 8

; Function Attrs: mustprogress nounwind uwtable
define linkonce_odr hidden void @_ZN14ArchiveBuilder23write_pointer_in_bufferIP6MethodEEvPT_S3_(ptr noundef nonnull align 8 dereferenceable(1080) %0, ptr noundef %1, ptr noundef %2) #1 comdat align 2 {
  %4 = alloca ptr, align 8
  %5 = alloca ptr, align 8
  %6 = alloca ptr, align 8
  store ptr %0, ptr %4, align 8
  store ptr %1, ptr %5, align 8
  store ptr %2, ptr %6, align 8
  %7 = load ptr, ptr %4, align 8
  %8 = load ptr, ptr %5, align 8
  %9 = load ptr, ptr %6, align 8
  call void @_ZN14ArchiveBuilder23write_pointer_in_bufferEPPhS0_(ptr noundef nonnull align 8 dereferenceable(1080) %7, ptr noundef %8, ptr noundef %9)
  ret void
}

; Function Attrs: mustprogress nounwind uwtable
define linkonce_odr hidden void @_ZN14ArchiveBuilder23write_pointer_in_bufferIP6SymbolEEvPT_S3_(ptr noundef nonnull align 8 dereferenceable(1080) %0, ptr noundef %1, ptr noundef %2) #1 comdat align 2 {
  %4 = alloca ptr, align 8
  %5 = alloca ptr, align 8
  %6 = alloca ptr, align 8
  store ptr %0, ptr %4, align 8
  store ptr %1, ptr %5, align 8
  store ptr %2, ptr %6, align 8
  %7 = load ptr, ptr %4, align 8
  %8 = load ptr, ptr %5, align 8
  %9 = load ptr, ptr %6, align 8
  call void @_ZN14ArchiveBuilder23write_pointer_in_bufferEPPhS0_(ptr noundef nonnull align 8 dereferenceable(1080) %7, ptr noundef %8, ptr noundef %9)
  ret void
}

; Function Attrs: mustprogress nounwind uwtable
define linkonce_odr hidden void @_ZN14ArchiveBuilder23write_pointer_in_bufferIP13InstanceKlassEEvPT_S3_(ptr noundef nonnull align 8 dereferenceable(1080) %0, ptr noundef %1, ptr noundef %2) #1 comdat align 2 {
  %4 = alloca ptr, align 8
  %5 = alloca ptr, align 8
  %6 = alloca ptr, align 8
  store ptr %0, ptr %4, align 8
  store ptr %1, ptr %5, align 8
  store ptr %2, ptr %6, align 8
  %7 = load ptr, ptr %4, align 8
  %8 = load ptr, ptr %5, align 8
  %9 = load ptr, ptr %6, align 8
  call void @_ZN14ArchiveBuilder23write_pointer_in_bufferEPPhS0_(ptr noundef nonnull align 8 dereferenceable(1080) %7, ptr noundef %8, ptr noundef %9)
  ret void
}

; Function Attrs: mustprogress nounwind uwtable
define linkonce_odr hidden noundef nonnull align 8 dereferenceable(8) ptr @_ZN17GrowableArrayViewIP13InstanceKlassE2atEi(ptr noundef nonnull align 8 dereferenceable(16) %0, i32 noundef %1) #1 comdat align 2 {
  %3 = alloca ptr, align 8
  %4 = alloca i32, align 4
  store ptr %0, ptr %3, align 8
  store i32 %1, ptr %4, align 4
  %5 = load ptr, ptr %3, align 8
  %6 = getelementptr inbounds %class.GrowableArrayView, ptr %5, i32 0, i32 1
  %7 = load ptr, ptr %6, align 8
  %8 = load i32, ptr %4, align 4
  %9 = sext i32 %8 to i64
  %10 = getelementptr inbounds ptr, ptr %7, i64 %9
  ret ptr %10
}

; Function Attrs: mustprogress nounwind uwtable
define linkonce_odr hidden noundef ptr @_ZN14ArchiveBuilder7currentEv() #1 comdat align 2 {
  %1 = load ptr, ptr @_ZN14ArchiveBuilder8_currentE, align 8
  ret ptr %1
}

; Function Attrs: mustprogress nounwind uwtable
define hidden void @_ZN19LambdaProxyClassKey16init_for_archiveERS_(ptr noundef nonnull align 8 dereferenceable(48) %0, ptr noundef nonnull align 8 dereferenceable(48) %1) #1 align 2 {
  %3 = alloca ptr, align 8
  %4 = alloca ptr, align 8
  %5 = alloca ptr, align 8
  store ptr %0, ptr %3, align 8
  store ptr %1, ptr %4, align 8
  %6 = load ptr, ptr %3, align 8
  %7 = call noundef ptr @_ZN14ArchiveBuilder7currentEv()
  store ptr %7, ptr %5, align 8
  %8 = load ptr, ptr %5, align 8
  %9 = getelementptr inbounds %class.LambdaProxyClassKey, ptr %6, i32 0, i32 0
  %10 = load ptr, ptr %4, align 8
  %11 = getelementptr inbounds %class.LambdaProxyClassKey, ptr %10, i32 0, i32 0
  %12 = load ptr, ptr %11, align 8
  call void @_ZN14ArchiveBuilder23write_pointer_in_bufferIP13InstanceKlassEEvPT_S3_(ptr noundef nonnull align 8 dereferenceable(1080) %8, ptr noundef %9, ptr noundef %12)
  %13 = load ptr, ptr %5, align 8
  %14 = getelementptr inbounds %class.LambdaProxyClassKey, ptr %6, i32 0, i32 5
  %15 = load ptr, ptr %4, align 8
  %16 = getelementptr inbounds %class.LambdaProxyClassKey, ptr %15, i32 0, i32 5
  %17 = load ptr, ptr %16, align 8
  call void @_ZN14ArchiveBuilder23write_pointer_in_bufferIP6SymbolEEvPT_S3_(ptr noundef nonnull align 8 dereferenceable(1080) %13, ptr noundef %14, ptr noundef %17)
  %18 = load ptr, ptr %5, align 8
  %19 = getelementptr inbounds %class.LambdaProxyClassKey, ptr %6, i32 0, i32 1
  %20 = load ptr, ptr %4, align 8
  %21 = getelementptr inbounds %class.LambdaProxyClassKey, ptr %20, i32 0, i32 1
  %22 = load ptr, ptr %21, align 8
  call void @_ZN14ArchiveBuilder23write_pointer_in_bufferIP6SymbolEEvPT_S3_(ptr noundef nonnull align 8 dereferenceable(1080) %18, ptr noundef %19, ptr noundef %22)
  %23 = load ptr, ptr %5, align 8
  %24 = getelementptr inbounds %class.LambdaProxyClassKey, ptr %6, i32 0, i32 2
  %25 = load ptr, ptr %4, align 8
  %26 = getelementptr inbounds %class.LambdaProxyClassKey, ptr %25, i32 0, i32 2
  %27 = load ptr, ptr %26, align 8
  call void @_ZN14ArchiveBuilder23write_pointer_in_bufferIP6SymbolEEvPT_S3_(ptr noundef nonnull align 8 dereferenceable(1080) %23, ptr noundef %24, ptr noundef %27)
  %28 = load ptr, ptr %5, align 8
  %29 = getelementptr inbounds %class.LambdaProxyClassKey, ptr %6, i32 0, i32 4
  %30 = load ptr, ptr %4, align 8
  %31 = getelementptr inbounds %class.LambdaProxyClassKey, ptr %30, i32 0, i32 4
  %32 = load ptr, ptr %31, align 8
  call void @_ZN14ArchiveBuilder23write_pointer_in_bufferIP6MethodEEvPT_S3_(ptr noundef nonnull align 8 dereferenceable(1080) %28, ptr noundef %29, ptr noundef %32)
  %33 = load ptr, ptr %5, align 8
  %34 = getelementptr inbounds %class.LambdaProxyClassKey, ptr %6, i32 0, i32 3
  %35 = load ptr, ptr %4, align 8
  %36 = getelementptr inbounds %class.LambdaProxyClassKey, ptr %35, i32 0, i32 3
  %37 = load ptr, ptr %36, align 8
  call void @_ZN14ArchiveBuilder23write_pointer_in_bufferIP6SymbolEEvPT_S3_(ptr noundef nonnull align 8 dereferenceable(1080) %33, ptr noundef %34, ptr noundef %37)
  ret void
}

; Function Attrs: mustprogress nounwind uwtable
define hidden void @_ZN27RunTimeLambdaProxyClassInfo4initER19LambdaProxyClassKeyR28DumpTimeLambdaProxyClassInfo(ptr noundef nonnull align 8 dereferenceable(56) %0, ptr noundef nonnull align 8 dereferenceable(48) %1, ptr noundef nonnull align 8 dereferenceable(8) %2) #1 align 2 {
  %4 = alloca ptr, align 8
  %5 = alloca ptr, align 8
  %6 = alloca ptr, align 8
  store ptr %0, ptr %4, align 8
  store ptr %1, ptr %5, align 8
  store ptr %2, ptr %6, align 8
  %7 = load ptr, ptr %4, align 8
  %8 = getelementptr inbounds %class.RunTimeLambdaProxyClassInfo, ptr %7, i32 0, i32 0
  %9 = load ptr, ptr %5, align 8
  call void @_ZN19LambdaProxyClassKey16init_for_archiveERS_(ptr noundef nonnull align 8 dereferenceable(48) %8, ptr noundef nonnull align 8 dereferenceable(48) %9)
  %10 = call noundef ptr @_ZN14ArchiveBuilder7currentEv()
  %11 = getelementptr inbounds %class.RunTimeLambdaProxyClassInfo, ptr %7, i32 0, i32 1
  %12 = load ptr, ptr %6, align 8
  %13 = getelementptr inbounds %class.DumpTimeLambdaProxyClassInfo, ptr %12, i32 0, i32 0
  %14 = load ptr, ptr %13, align 8
  %15 = call noundef nonnull align 8 dereferenceable(8) ptr @_ZN17GrowableArrayViewIP13InstanceKlassE2atEi(ptr noundef nonnull align 8 dereferenceable(16) %14, i32 noundef 0)
  %16 = load ptr, ptr %15, align 8
  call void @_ZN14ArchiveBuilder23write_pointer_in_bufferIP13InstanceKlassEEvPT_S3_(ptr noundef nonnull align 8 dereferenceable(1080) %10, ptr noundef %11, ptr noundef %16)
  ret void
}