; Function Attrs: mustprogress nounwind uwtable
define hidden void @_ZN27RunTimeLambdaProxyClassInfo4initER19LambdaProxyClassKeyR28DumpTimeLambdaProxyClassInfo(ptr noundef nonnull align 8 dereferenceable(56) %0, ptr nocapture noundef nonnull readonly align 8 dereferenceable(48) %1, ptr nocapture noundef nonnull readonly align 8 dereferenceable(8) %2) local_unnamed_addr #0 align 2 {
  %4 = load ptr, ptr @_ZN14ArchiveBuilder8_currentE, align 8
  %5 = load ptr, ptr %1, align 8
  tail call void @_ZN14ArchiveBuilder23write_pointer_in_bufferEPPhS0_(ptr noundef nonnull align 8 dereferenceable(1080) %4, ptr noundef nonnull %0, ptr noundef %5) #4
  %6 = getelementptr inbounds i8, ptr %0, i64 40
  %7 = getelementptr inbounds i8, ptr %1, i64 40
  %8 = load ptr, ptr %7, align 8
  tail call void @_ZN14ArchiveBuilder23write_pointer_in_bufferEPPhS0_(ptr noundef nonnull align 8 dereferenceable(1080) %4, ptr noundef nonnull %6, ptr noundef %8) #4
  %9 = getelementptr inbounds i8, ptr %0, i64 8
  %10 = getelementptr inbounds i8, ptr %1, i64 8
  %11 = load ptr, ptr %10, align 8
  tail call void @_ZN14ArchiveBuilder23write_pointer_in_bufferEPPhS0_(ptr noundef nonnull align 8 dereferenceable(1080) %4, ptr noundef nonnull %9, ptr noundef %11) #4
  %12 = getelementptr inbounds i8, ptr %0, i64 16
  %13 = getelementptr inbounds i8, ptr %1, i64 16
  %14 = load ptr, ptr %13, align 8
  tail call void @_ZN14ArchiveBuilder23write_pointer_in_bufferEPPhS0_(ptr noundef nonnull align 8 dereferenceable(1080) %4, ptr noundef nonnull %12, ptr noundef %14) #4
  %15 = getelementptr inbounds i8, ptr %0, i64 32
  %16 = getelementptr inbounds i8, ptr %1, i64 32
  %17 = load ptr, ptr %16, align 8
  tail call void @_ZN14ArchiveBuilder23write_pointer_in_bufferEPPhS0_(ptr noundef nonnull align 8 dereferenceable(1080) %4, ptr noundef nonnull %15, ptr noundef %17) #4
  %18 = getelementptr inbounds i8, ptr %0, i64 24
  %19 = getelementptr inbounds i8, ptr %1, i64 24
  %20 = load ptr, ptr %19, align 8
  tail call void @_ZN14ArchiveBuilder23write_pointer_in_bufferEPPhS0_(ptr noundef nonnull align 8 dereferenceable(1080) %4, ptr noundef nonnull %18, ptr noundef %20) #4
  %21 = load ptr, ptr @_ZN14ArchiveBuilder8_currentE, align 8
  %22 = getelementptr inbounds i8, ptr %0, i64 48
  %23 = load ptr, ptr %2, align 8
  %24 = getelementptr inbounds i8, ptr %23, i64 8
  %25 = load ptr, ptr %24, align 8
  %26 = load ptr, ptr %25, align 8
  tail call void @_ZN14ArchiveBuilder23write_pointer_in_bufferEPPhS0_(ptr noundef nonnull align 8 dereferenceable(1080) %21, ptr noundef nonnull %22, ptr noundef %26) #4
  ret void
}